; Function Attrs: mustprogress nounwind null_pointer_is_valid sspstrong uwtable
define void @_ZN14InterfaceFrameD2Ev(ptr noundef align 8 dereferenceable_or_null(208) initializes((0, 8), (16, 24)) %0) unnamed_addr #0 align 2 personality ptr @__gxx_personality_v0 {
  store ptr getelementptr inbounds nuw inrange(-16, 424) (i8, ptr @_ZTV14InterfaceFrame, i64 16), ptr %0, align 8
  %2 = getelementptr inbounds nuw i8, ptr %0, i64 16
  store ptr getelementptr inbounds nuw inrange(-16, 64) (i8, ptr @_ZTV14InterfaceFrame, i64 456), ptr %2, align 8
  %3 = getelementptr inbounds nuw i8, ptr %0, i64 40
  %4 = load ptr, ptr %3, align 8
  %5 = icmp eq ptr %4, null
  br i1 %5, label %7, label %6

6:                                                ; preds = %1
  tail call void @_ZdlPvm(ptr noundef nonnull %4, i64 noundef 24) #29
  br label %7

7:                                                ; preds = %6, %1
  %8 = getelementptr inbounds nuw i8, ptr %0, i64 200
  %9 = load ptr, ptr %8, align 8
  %.not.i.i = icmp eq ptr %9, null
  br i1 %.not.i.i, label %_ZN4QMapIi7QStringED2Ev.exit, label %10

10:                                               ; preds = %7
  %11 = atomicrmw sub ptr %9, i32 1 seq_cst, align 4
  %.not2.i.i = icmp eq i32 %11, 1
  br i1 %.not2.i.i, label %12, label %_ZN4QMapIi7QStringED2Ev.exit

12:                                               ; preds = %10
  %13 = load ptr, ptr %8, align 8
  %14 = icmp eq ptr %13, null
  br i1 %14, label %_ZN4QMapIi7QStringED2Ev.exit, label %15

15:                                               ; preds = %12
  %16 = getelementptr inbounds nuw i8, ptr %13, i64 8
  %17 = getelementptr inbounds nuw i8, ptr %13, i64 24
  %18 = load ptr, ptr %17, align 8
  invoke void @_ZNSt8_Rb_treeIiSt4pairIKi7QStringESt10_Select1stIS3_ESt4lessIiESaIS3_EE8_M_eraseEPSt13_Rb_tree_nodeIS3_E(ptr noundef nonnull align 8 dereferenceable_or_null(48) %16, ptr noundef %18)
          to label %_ZN8QMapDataISt3mapIi7QStringSt4lessIiESaISt4pairIKiS1_EEEED2Ev.exit.i.i unwind label %19

19:                                               ; preds = %15
  %20 = landingpad { ptr, i32 }
          catch ptr null
  %21 = extractvalue { ptr, i32 } %20, 0
  tail call void @__clang_call_terminate(ptr %21) #26
  unreachable

_ZN8QMapDataISt3mapIi7QStringSt4lessIiESaISt4pairIKiS1_EEEED2Ev.exit.i.i: ; preds = %15
  tail call void @_ZdlPvm(ptr noundef nonnull %13, i64 noundef 56) #29
  br label %_ZN4QMapIi7QStringED2Ev.exit

_ZN4QMapIi7QStringED2Ev.exit:                     ; preds = %7, %10, %12, %_ZN8QMapDataISt3mapIi7QStringSt4lessIiESaISt4pairIKiS1_EEEED2Ev.exit.i.i
  %22 = getelementptr inbounds nuw i8, ptr %0, i64 152
  tail call void @_ZN14InfoProxyModelD1Ev(ptr noundef nonnull align 8 dereferenceable_or_null(48) %22) #28
  %23 = getelementptr inbounds nuw i8, ptr %0, i64 120
  tail call void @_ZN18InterfaceTreeModelD1Ev(ptr noundef nonnull align 8 dereferenceable_or_null(32) %23) #28
  %24 = getelementptr inbounds nuw i8, ptr %0, i64 48
  store ptr getelementptr inbounds nuw inrange(-16, 456) (i8, ptr @_ZTV24InterfaceSortFilterModel, i64 16), ptr %24, align 8
  %25 = getelementptr inbounds nuw i8, ptr %0, i64 96
  %26 = load ptr, ptr %25, align 8
  %.not.i.i.i.i = icmp eq ptr %26, null
  br i1 %.not.i.i.i.i, label %_ZN5QListI20InterfaceTreeColumnsED2Ev.exit.i, label %_ZN17QArrayDataPointerI20InterfaceTreeColumnsE5derefEv.exit.i.i.i

_ZN17QArrayDataPointerI20InterfaceTreeColumnsE5derefEv.exit.i.i.i: ; preds = %_ZN4QMapIi7QStringED2Ev.exit
  %27 = atomicrmw sub ptr %26, i32 1 seq_cst, align 4
  %.not.i.i.i = icmp eq i32 %27, 1
  br i1 %.not.i.i.i, label %28, label %_ZN5QListI20InterfaceTreeColumnsED2Ev.exit.i

28:                                               ; preds = %_ZN17QArrayDataPointerI20InterfaceTreeColumnsE5derefEv.exit.i.i.i
  %29 = load ptr, ptr %25, align 8
  tail call void @_ZN10QArrayData10deallocateEPS_xx(ptr noundef %29, i64 noundef 4, i64 noundef 8) #28
  br label %_ZN5QListI20InterfaceTreeColumnsED2Ev.exit.i

_ZN5QListI20InterfaceTreeColumnsED2Ev.exit.i:     ; preds = %28, %_ZN17QArrayDataPointerI20InterfaceTreeColumnsE5derefEv.exit.i.i.i, %_ZN4QMapIi7QStringED2Ev.exit
  %30 = getelementptr inbounds nuw i8, ptr %0, i64 72
  %31 = load ptr, ptr %30, align 8
  %.not.i.i.i1.i = icmp eq ptr %31, null
  br i1 %.not.i.i.i1.i, label %_ZN24InterfaceSortFilterModelD2Ev.exit, label %_ZN17QArrayDataPointerIiE5derefEv.exit.i.i.i

_ZN17QArrayDataPointerIiE5derefEv.exit.i.i.i:     ; preds = %_ZN5QListI20InterfaceTreeColumnsED2Ev.exit.i
  %32 = atomicrmw sub ptr %31, i32 1 seq_cst, align 4
  %.not.i.i2.i = icmp eq i32 %32, 1
  br i1 %.not.i.i2.i, label %33, label %_ZN24InterfaceSortFilterModelD2Ev.exit

33:                                               ; preds = %_ZN17QArrayDataPointerIiE5derefEv.exit.i.i.i
  %34 = load ptr, ptr %30, align 8
  tail call void @_ZN10QArrayData10deallocateEPS_xx(ptr noundef %34, i64 noundef 4, i64 noundef 8) #28
  br label %_ZN24InterfaceSortFilterModelD2Ev.exit

_ZN24InterfaceSortFilterModelD2Ev.exit:           ; preds = %_ZN5QListI20InterfaceTreeColumnsED2Ev.exit.i, %_ZN17QArrayDataPointerIiE5derefEv.exit.i.i.i, %33
  tail call void @_ZN21QSortFilterProxyModelD2Ev(ptr noundef nonnull align 8 dereferenceable_or_null(72) %24) #28
  tail call void @_ZN6QFrameD2Ev(ptr noundef align 8 dereferenceable_or_null(40) %0) #28
  ret void
}